target datalayout = "e-m:e-p270:32:32-p271:32:32-p272:64:64-i64:64-i128:128-f80:128-n8:16:32:64-S128"
target triple = "x86_64-pc-linux-gnu"

%struct.xppid_s = type { i32, ptr, ptr }
%struct.xpid_s = type { i32, i32, ptr, ptr }

@.str = private unnamed_addr constant [12 x i8] c"kill_tree.c\00", align 1
@__func__.proctrack_linuxproc_get_pids = private unnamed_addr constant [29 x i8] c"proctrack_linuxproc_get_pids\00", align 1

; Function Attrs: nounwind uwtable
define internal void @_destroy_list(ptr noundef %0) #0 {
  %2 = alloca ptr, align 8
  %3 = alloca ptr, align 8
  store ptr %0, ptr %2, align 8
  call void @llvm.lifetime.start.p0(i64 8, ptr %3) #6
  br label %4

4:                                                ; preds = %7, %1
  %5 = load ptr, ptr %2, align 8
  %6 = icmp ne ptr %5, null
  br i1 %6, label %7, label %14

7:                                                ; preds = %4
  %8 = load ptr, ptr %2, align 8
  %9 = getelementptr inbounds nuw %struct.xpid_s, ptr %8, i32 0, i32 3
  %10 = load ptr, ptr %9, align 8
  store ptr %10, ptr %3, align 8
  %11 = load ptr, ptr %2, align 8
  %12 = getelementptr inbounds nuw %struct.xpid_s, ptr %11, i32 0, i32 2
  call void @slurm_xfree(ptr noundef %12)
  call void @slurm_xfree(ptr noundef %2)
  %13 = load ptr, ptr %3, align 8
  store ptr %13, ptr %2, align 8
  br label %4, !llvm.loop !17

14:                                               ; preds = %4
  call void @llvm.lifetime.end.p0(i64 8, ptr %3) #6
  ret void
}

; Function Attrs: nounwind uwtable
define internal void @_destroy_hashtbl(ptr noundef %0) #0 {
  %2 = alloca ptr, align 8
  %3 = alloca i32, align 4
  %4 = alloca ptr, align 8
  %5 = alloca ptr, align 8
  store ptr %0, ptr %2, align 8
  call void @llvm.lifetime.start.p0(i64 4, ptr %3) #6
  call void @llvm.lifetime.start.p0(i64 8, ptr %4) #6
  call void @llvm.lifetime.start.p0(i64 8, ptr %5) #6
  store i32 0, ptr %3, align 4
  br label %6

6:                                                ; preds = %27, %1
  %7 = load i32, ptr %3, align 4
  %8 = icmp slt i32 %7, 64
  br i1 %8, label %9, label %30

9:                                                ; preds = %6
  %10 = load ptr, ptr %2, align 8
  %11 = load i32, ptr %3, align 4
  %12 = sext i32 %11 to i64
  %13 = getelementptr inbounds ptr, ptr %10, i64 %12
  %14 = load ptr, ptr %13, align 8
  store ptr %14, ptr %4, align 8
  br label %15

15:                                               ; preds = %18, %9
  %16 = load ptr, ptr %4, align 8
  %17 = icmp ne ptr %16, null
  br i1 %17, label %18, label %26

18:                                               ; preds = %15
  %19 = load ptr, ptr %4, align 8
  %20 = getelementptr inbounds nuw %struct.xppid_s, ptr %19, i32 0, i32 1
  %21 = load ptr, ptr %20, align 8
  call void @_destroy_list(ptr noundef %21)
  %22 = load ptr, ptr %4, align 8
  %23 = getelementptr inbounds nuw %struct.xppid_s, ptr %22, i32 0, i32 2
  %24 = load ptr, ptr %23, align 8
  store ptr %24, ptr %5, align 8
  call void @slurm_xfree(ptr noundef %4)
  %25 = load ptr, ptr %5, align 8
  store ptr %25, ptr %4, align 8
  br label %15, !llvm.loop !15

26:                                               ; preds = %15
  br label %27

27:                                               ; preds = %26
  %28 = load i32, ptr %3, align 4
  %29 = add nsw i32 %28, 1
  store i32 %29, ptr %3, align 4
  br label %6, !llvm.loop !16

30:                                               ; preds = %6
  call void @slurm_xfree(ptr noundef %2)
  call void @llvm.lifetime.end.p0(i64 8, ptr %5) #6
  call void @llvm.lifetime.end.p0(i64 8, ptr %4) #6
  call void @llvm.lifetime.end.p0(i64 4, ptr %3) #6
  ret void
}

; Function Attrs: nounwind uwtable
define dso_local i32 @proctrack_linuxproc_get_pids(i32 noundef %0, ptr noundef %1, ptr noundef %2) #0 {
  %4 = alloca i32, align 4
  %5 = alloca i32, align 4
  %6 = alloca ptr, align 8
  %7 = alloca ptr, align 8
  %8 = alloca ptr, align 8
  %9 = alloca ptr, align 8
  %10 = alloca ptr, align 8
  %11 = alloca ptr, align 8
  %12 = alloca i32, align 4
  %13 = alloca i32, align 4
  %14 = alloca i32, align 4
  %15 = alloca i32, align 4
  store i32 %0, ptr %5, align 4
  store ptr %1, ptr %6, align 8
  store ptr %2, ptr %7, align 8
  call void @llvm.lifetime.start.p0(i64 8, ptr %8) #6
  call void @llvm.lifetime.start.p0(i64 8, ptr %9) #6
  call void @llvm.lifetime.start.p0(i64 8, ptr %10) #6
  call void @llvm.lifetime.start.p0(i64 8, ptr %11) #6
  call void @llvm.lifetime.start.p0(i64 4, ptr %12) #6
  call void @llvm.lifetime.start.p0(i64 4, ptr %13) #6
  store i32 32, ptr %13, align 4
  call void @llvm.lifetime.start.p0(i64 4, ptr %14) #6
  %16 = call ptr @_build_hashtbl()
  store ptr %16, ptr %8, align 8
  %17 = icmp eq ptr %16, null
  br i1 %17, label %18, label %19

18:                                               ; preds = %3
  store i32 -1, ptr %4, align 4
  store i32 1, ptr %15, align 4
  br label %83

19:                                               ; preds = %3
  %20 = load i32, ptr %5, align 4
  %21 = load ptr, ptr %8, align 8
  %22 = call ptr @_get_list(i32 noundef %20, ptr noundef null, ptr noundef %21)
  store ptr %22, ptr %9, align 8
  %23 = load ptr, ptr %9, align 8
  %24 = icmp eq ptr %23, null
  br i1 %24, label %25, label %29

25:                                               ; preds = %19
  %26 = load ptr, ptr %6, align 8
  store ptr null, ptr %26, align 8
  %27 = load ptr, ptr %7, align 8
  store i32 0, ptr %27, align 4
  %28 = load ptr, ptr %8, align 8
  call void @_destroy_hashtbl(ptr noundef %28)
  store i32 -1, ptr %4, align 4
  store i32 1, ptr %15, align 4
  br label %83

29:                                               ; preds = %19
  %30 = load i32, ptr %13, align 4
  %31 = sext i32 %30 to i64
  %32 = call ptr @slurm_xcalloc(i64 noundef %31, i64 noundef 4, i1 noundef zeroext true, i1 noundef zeroext false, ptr noundef @.str, i32 noundef 401, ptr noundef @__func__.proctrack_linuxproc_get_pids)
  store ptr %32, ptr %11, align 8
  %33 = load ptr, ptr %9, align 8
  store ptr %33, ptr %10, align 8
  store i32 0, ptr %12, align 4
  br label %34

34:                                               ; preds = %64, %29
  %35 = load ptr, ptr %10, align 8
  %36 = icmp ne ptr %35, null
  br i1 %36, label %37, label %68

37:                                               ; preds = %34
  %38 = load ptr, ptr %10, align 8
  %39 = getelementptr inbounds nuw %struct.xpid_s, ptr %38, i32 0, i32 1
  %40 = load i32, ptr %39, align 4
  %41 = icmp ne i32 %40, 0
  br i1 %41, label %42, label %64

42:                                               ; preds = %37
  %43 = load i32, ptr %12, align 4
  %44 = load i32, ptr %13, align 4
  %45 = sub nsw i32 %44, 1
  %46 = icmp sge i32 %43, %45
  br i1 %46, label %47, label %54

47:                                               ; preds = %42
  %48 = load i32, ptr %13, align 4
  %49 = mul nsw i32 %48, 2
  store i32 %49, ptr %13, align 4
  %50 = load i32, ptr %13, align 4
  %51 = sext i32 %50 to i64
  %52 = mul i64 4, %51
  %53 = call ptr @slurm_xrecalloc(ptr noundef %11, i64 noundef 1, i64 noundef %52, i1 noundef zeroext true, i1 noundef zeroext false, ptr noundef @.str, i32 noundef 408, ptr noundef @__func__.proctrack_linuxproc_get_pids)
  br label %54

54:                                               ; preds = %47, %42
  %55 = load ptr, ptr %10, align 8
  %56 = getelementptr inbounds nuw %struct.xpid_s, ptr %55, i32 0, i32 0
  %57 = load i32, ptr %56, align 8
  %58 = load ptr, ptr %11, align 8
  %59 = load i32, ptr %12, align 4
  %60 = sext i32 %59 to i64
  %61 = getelementptr inbounds i32, ptr %58, i64 %60
  store i32 %57, ptr %61, align 4
  %62 = load i32, ptr %12, align 4
  %63 = add nsw i32 %62, 1
  store i32 %63, ptr %12, align 4
  br label %64

64:                                               ; preds = %54, %37
  %65 = load ptr, ptr %10, align 8
  %66 = getelementptr inbounds nuw %struct.xpid_s, ptr %65, i32 0, i32 3
  %67 = load ptr, ptr %66, align 8
  store ptr %67, ptr %10, align 8
  br label %34, !llvm.loop !19

68:                                               ; preds = %34
  %69 = load i32, ptr %12, align 4
  %70 = icmp eq i32 %69, 0
  br i1 %70, label %71, label %74

71:                                               ; preds = %68
  call void @slurm_xfree(ptr noundef %11)
  %72 = load ptr, ptr %6, align 8
  store ptr null, ptr %72, align 8
  %73 = load ptr, ptr %7, align 8
  store i32 0, ptr %73, align 4
  store i32 -1, ptr %14, align 4
  br label %79

74:                                               ; preds = %68
  %75 = load ptr, ptr %11, align 8
  %76 = load ptr, ptr %6, align 8
  store ptr %75, ptr %76, align 8
  %77 = load i32, ptr %12, align 4
  %78 = load ptr, ptr %7, align 8
  store i32 %77, ptr %78, align 4
  store i32 0, ptr %14, align 4
  br label %79

79:                                               ; preds = %74, %71
  %80 = load ptr, ptr %8, align 8
  call void @_destroy_hashtbl(ptr noundef %80)
  %81 = load ptr, ptr %9, align 8
  call void @_destroy_list(ptr noundef %81)
  %82 = load i32, ptr %14, align 4
  store i32 %82, ptr %4, align 4
  store i32 1, ptr %15, align 4
  br label %83

83:                                               ; preds = %79, %25, %18
  call void @llvm.lifetime.end.p0(i64 4, ptr %14) #6
  call void @llvm.lifetime.end.p0(i64 4, ptr %13) #6
  call void @llvm.lifetime.end.p0(i64 4, ptr %12) #6
  call void @llvm.lifetime.end.p0(i64 8, ptr %11) #6
  call void @llvm.lifetime.end.p0(i64 8, ptr %10) #6
  call void @llvm.lifetime.end.p0(i64 8, ptr %9) #6
  call void @llvm.lifetime.end.p0(i64 8, ptr %8) #6
  %84 = load i32, ptr %4, align 4
  ret i32 %84
}