; Function Attrs: nounwind uwtable
define dso_local range(i32 -1, 1) i32 @proctrack_linuxproc_get_pids(i32 noundef %0, ptr noundef writeonly captures(none) %1, ptr noundef writeonly captures(none) %2) local_unnamed_addr #0 {
  %4 = alloca ptr, align 8
  %5 = alloca ptr, align 8
  %6 = alloca ptr, align 8
  %7 = alloca ptr, align 8
  %8 = alloca ptr, align 8
  %9 = alloca ptr, align 8
  %10 = alloca ptr, align 8
  %11 = alloca ptr, align 8
  call void @llvm.lifetime.start.p0(i64 8, ptr nonnull %11) #9
  %12 = tail call fastcc ptr @_build_hashtbl()
  %13 = icmp eq ptr %12, null
  br i1 %13, label %72, label %14

14:                                               ; preds = %3
  %15 = tail call fastcc ptr @_get_list(i32 noundef %0, ptr noundef null, ptr noundef %12)
  %16 = icmp eq ptr %15, null
  br i1 %16, label %17, label %30

17:                                               ; preds = %14
  store ptr null, ptr %1, align 8
  store i32 0, ptr %2, align 4
  call void @llvm.lifetime.start.p0(i64 8, ptr nonnull %9)
  store ptr %12, ptr %9, align 8
  call void @llvm.lifetime.start.p0(i64 8, ptr nonnull %10) #9
  br label %18

18:                                               ; preds = %._crit_edge.i, %17
  %indvars.iv.i = phi i64 [ 0, %17 ], [ %indvars.iv.next.i, %._crit_edge.i ]
  %19 = load ptr, ptr %9, align 8
  %20 = getelementptr inbounds nuw ptr, ptr %19, i64 %indvars.iv.i
  %21 = load ptr, ptr %20, align 8
  store ptr %21, ptr %10, align 8
  %.not4.i = icmp eq ptr %21, null
  br i1 %.not4.i, label %._crit_edge.i, label %.lr.ph.i

.lr.ph.i:                                         ; preds = %18, %_destroy_list.exit.i
  %storemerge5.i = phi ptr [ %29, %_destroy_list.exit.i ], [ %21, %18 ]
  %22 = getelementptr inbounds nuw i8, ptr %storemerge5.i, i64 8
  %23 = load ptr, ptr %22, align 8
  call void @llvm.lifetime.start.p0(i64 8, ptr nonnull %8)
  store ptr %23, ptr %8, align 8
  %.not1.i.i = icmp eq ptr %23, null
  br i1 %.not1.i.i, label %_destroy_list.exit.i, label %.lr.ph.i.i

.lr.ph.i.i:                                       ; preds = %.lr.ph.i, %.lr.ph.i.i
  %storemerge2.i.i = phi ptr [ %25, %.lr.ph.i.i ], [ %23, %.lr.ph.i ]
  %24 = getelementptr inbounds nuw i8, ptr %storemerge2.i.i, i64 16
  %25 = load ptr, ptr %24, align 8
  %26 = getelementptr inbounds nuw i8, ptr %storemerge2.i.i, i64 8
  call void @slurm_xfree(ptr noundef nonnull %26) #9
  call void @slurm_xfree(ptr noundef nonnull %8) #9
  store ptr %25, ptr %8, align 8
  %.not.i.i = icmp eq ptr %25, null
  br i1 %.not.i.i, label %_destroy_list.exit.loopexit.i, label %.lr.ph.i.i, !llvm.loop !11

_destroy_list.exit.loopexit.i:                    ; preds = %.lr.ph.i.i
  %.pre.i = load ptr, ptr %10, align 8
  br label %_destroy_list.exit.i

_destroy_list.exit.i:                             ; preds = %_destroy_list.exit.loopexit.i, %.lr.ph.i
  %27 = phi ptr [ %.pre.i, %_destroy_list.exit.loopexit.i ], [ %storemerge5.i, %.lr.ph.i ]
  call void @llvm.lifetime.end.p0(i64 8, ptr nonnull %8)
  %28 = getelementptr inbounds nuw i8, ptr %27, i64 16
  %29 = load ptr, ptr %28, align 8
  call void @slurm_xfree(ptr noundef nonnull %10) #9
  store ptr %29, ptr %10, align 8
  %.not.i = icmp eq ptr %29, null
  br i1 %.not.i, label %._crit_edge.i, label %.lr.ph.i, !llvm.loop !12

._crit_edge.i:                                    ; preds = %_destroy_list.exit.i, %18
  %indvars.iv.next.i = add nuw nsw i64 %indvars.iv.i, 1
  %exitcond.not.i = icmp eq i64 %indvars.iv.next.i, 64
  br i1 %exitcond.not.i, label %_destroy_hashtbl.exit, label %18, !llvm.loop !13

_destroy_hashtbl.exit:                            ; preds = %._crit_edge.i
  call void @slurm_xfree(ptr noundef nonnull %9) #9
  call void @llvm.lifetime.end.p0(i64 8, ptr nonnull %10) #9
  call void @llvm.lifetime.end.p0(i64 8, ptr nonnull %9)
  br label %72

30:                                               ; preds = %14
  %31 = tail call ptr @slurm_xcalloc(i64 noundef 32, i64 noundef 4, i1 noundef zeroext true, i1 noundef zeroext false, ptr noundef nonnull @.str, i32 noundef 401, ptr noundef nonnull @__func__.proctrack_linuxproc_get_pids) #9
  store ptr %31, ptr %11, align 8
  br label %32

32:                                               ; preds = %30, %48
  %.02758 = phi i32 [ 32, %30 ], [ %.1, %48 ]
  %.02857 = phi i32 [ 0, %30 ], [ %.129, %48 ]
  %.03056 = phi ptr [ %15, %30 ], [ %50, %48 ]
  %33 = getelementptr inbounds nuw i8, ptr %.03056, i64 4
  %34 = load i32, ptr %33, align 4
  %.not35 = icmp eq i32 %34, 0
  br i1 %.not35, label %48, label %35

35:                                               ; preds = %32
  %36 = add nsw i32 %.02758, -1
  %.not36 = icmp slt i32 %.02857, %36
  br i1 %.not36, label %42, label %37

37:                                               ; preds = %35
  %38 = shl nsw i32 %.02758, 1
  %39 = sext i32 %38 to i64
  %40 = shl nsw i64 %39, 2
  %41 = call ptr @slurm_xrecalloc(ptr noundef nonnull %11, i64 noundef 1, i64 noundef %40, i1 noundef zeroext true, i1 noundef zeroext false, ptr noundef nonnull @.str, i32 noundef 408, ptr noundef nonnull @__func__.proctrack_linuxproc_get_pids) #9
  br label %42

42:                                               ; preds = %37, %35
  %.2 = phi i32 [ %38, %37 ], [ %.02758, %35 ]
  %43 = load i32, ptr %.03056, align 8
  %44 = load ptr, ptr %11, align 8
  %45 = sext i32 %.02857 to i64
  %46 = getelementptr inbounds i32, ptr %44, i64 %45
  store i32 %43, ptr %46, align 4
  %47 = add nsw i32 %.02857, 1
  br label %48

48:                                               ; preds = %42, %32
  %.129 = phi i32 [ %47, %42 ], [ %.02857, %32 ]
  %.1 = phi i32 [ %.2, %42 ], [ %.02758, %32 ]
  %49 = getelementptr inbounds nuw i8, ptr %.03056, i64 16
  %50 = load ptr, ptr %49, align 8
  %.not = icmp eq ptr %50, null
  br i1 %.not, label %51, label %32, !llvm.loop !20

51:                                               ; preds = %48
  %52 = icmp eq i32 %.129, 0
  br i1 %52, label %53, label %54

53:                                               ; preds = %51
  call void @slurm_xfree(ptr noundef nonnull %11) #9
  br label %56

54:                                               ; preds = %51
  %55 = load ptr, ptr %11, align 8
  br label %56

56:                                               ; preds = %54, %53
  %storemerge34 = phi ptr [ %55, %54 ], [ null, %53 ]
  %.0 = phi i32 [ 0, %54 ], [ -1, %53 ]
  store ptr %storemerge34, ptr %1, align 8
  store i32 %.129, ptr %2, align 4
  call void @llvm.lifetime.start.p0(i64 8, ptr nonnull %6)
  store ptr %12, ptr %6, align 8
  call void @llvm.lifetime.start.p0(i64 8, ptr nonnull %7) #9
  br label %57

57:                                               ; preds = %._crit_edge.i49, %56
  %indvars.iv.i37 = phi i64 [ 0, %56 ], [ %indvars.iv.next.i50, %._crit_edge.i49 ]
  %58 = load ptr, ptr %6, align 8
  %59 = getelementptr inbounds nuw ptr, ptr %58, i64 %indvars.iv.i37
  %60 = load ptr, ptr %59, align 8
  store ptr %60, ptr %7, align 8
  %.not4.i38 = icmp eq ptr %60, null
  br i1 %.not4.i38, label %._crit_edge.i49, label %.lr.ph.i39

.lr.ph.i39:                                       ; preds = %57, %_destroy_list.exit.i47
  %storemerge5.i40 = phi ptr [ %68, %_destroy_list.exit.i47 ], [ %60, %57 ]
  %61 = getelementptr inbounds nuw i8, ptr %storemerge5.i40, i64 8
  %62 = load ptr, ptr %61, align 8
  call void @llvm.lifetime.start.p0(i64 8, ptr nonnull %5)
  store ptr %62, ptr %5, align 8
  %.not1.i.i41 = icmp eq ptr %62, null
  br i1 %.not1.i.i41, label %_destroy_list.exit.i47, label %.lr.ph.i.i42

.lr.ph.i.i42:                                     ; preds = %.lr.ph.i39, %.lr.ph.i.i42
  %storemerge2.i.i43 = phi ptr [ %64, %.lr.ph.i.i42 ], [ %62, %.lr.ph.i39 ]
  %63 = getelementptr inbounds nuw i8, ptr %storemerge2.i.i43, i64 16
  %64 = load ptr, ptr %63, align 8
  %65 = getelementptr inbounds nuw i8, ptr %storemerge2.i.i43, i64 8
  call void @slurm_xfree(ptr noundef nonnull %65) #9
  call void @slurm_xfree(ptr noundef nonnull %5) #9
  store ptr %64, ptr %5, align 8
  %.not.i.i44 = icmp eq ptr %64, null
  br i1 %.not.i.i44, label %_destroy_list.exit.loopexit.i45, label %.lr.ph.i.i42, !llvm.loop !11

_destroy_list.exit.loopexit.i45:                  ; preds = %.lr.ph.i.i42
  %.pre.i46 = load ptr, ptr %7, align 8
  br label %_destroy_list.exit.i47

_destroy_list.exit.i47:                           ; preds = %_destroy_list.exit.loopexit.i45, %.lr.ph.i39
  %66 = phi ptr [ %.pre.i46, %_destroy_list.exit.loopexit.i45 ], [ %storemerge5.i40, %.lr.ph.i39 ]
  call void @llvm.lifetime.end.p0(i64 8, ptr nonnull %5)
  %67 = getelementptr inbounds nuw i8, ptr %66, i64 16
  %68 = load ptr, ptr %67, align 8
  call void @slurm_xfree(ptr noundef nonnull %7) #9
  store ptr %68, ptr %7, align 8
  %.not.i48 = icmp eq ptr %68, null
  br i1 %.not.i48, label %._crit_edge.i49, label %.lr.ph.i39, !llvm.loop !12

._crit_edge.i49:                                  ; preds = %_destroy_list.exit.i47, %57
  %indvars.iv.next.i50 = add nuw nsw i64 %indvars.iv.i37, 1
  %exitcond.not.i51 = icmp eq i64 %indvars.iv.next.i50, 64
  br i1 %exitcond.not.i51, label %_destroy_hashtbl.exit52, label %57, !llvm.loop !13

_destroy_hashtbl.exit52:                          ; preds = %._crit_edge.i49
  call void @slurm_xfree(ptr noundef nonnull %6) #9
  call void @llvm.lifetime.end.p0(i64 8, ptr nonnull %7) #9
  call void @llvm.lifetime.end.p0(i64 8, ptr nonnull %6)
  call void @llvm.lifetime.start.p0(i64 8, ptr nonnull %4)
  store ptr %15, ptr %4, align 8
  br label %.lr.ph.i53

.lr.ph.i53:                                       ; preds = %_destroy_hashtbl.exit52, %.lr.ph.i53
  %storemerge2.i = phi ptr [ %70, %.lr.ph.i53 ], [ %15, %_destroy_hashtbl.exit52 ]
  %69 = getelementptr inbounds nuw i8, ptr %storemerge2.i, i64 16
  %70 = load ptr, ptr %69, align 8
  %71 = getelementptr inbounds nuw i8, ptr %storemerge2.i, i64 8
  call void @slurm_xfree(ptr noundef nonnull %71) #9
  call void @slurm_xfree(ptr noundef nonnull %4) #9
  store ptr %70, ptr %4, align 8
  %.not.i54 = icmp eq ptr %70, null
  br i1 %.not.i54, label %_destroy_list.exit, label %.lr.ph.i53, !llvm.loop !11

_destroy_list.exit:                               ; preds = %.lr.ph.i53
  call void @llvm.lifetime.end.p0(i64 8, ptr nonnull %4)
  br label %72

72:                                               ; preds = %3, %_destroy_list.exit, %_destroy_hashtbl.exit
  %.031 = phi i32 [ -1, %_destroy_hashtbl.exit ], [ %.0, %_destroy_list.exit ], [ -1, %3 ]
  call void @llvm.lifetime.end.p0(i64 8, ptr nonnull %11) #9
  ret i32 %.031
}